target datalayout = "e-m:e-p270:32:32-p271:32:32-p272:64:64-i64:64-i128:128-f80:128-n8:16:32:64-S128"
target triple = "x86_64-pc-linux-gnu"

%struct.Map_NodeStruct_t_ = type { ptr, ptr, i32, i32, i32, i32, [3 x i32], [3 x float], float, ptr, ptr, ptr, ptr, [2 x %struct.Map_TimeStruct_t_], [2 x %struct.Map_TimeStruct_t_], [2 x ptr], ptr, ptr, ptr }
%struct.Map_TimeStruct_t_ = type { float, float, float }

; Function Attrs: nounwind uwtable
define i32 @Map_CompareNodesByLevel(ptr noundef %0, ptr noundef %1) #0 {
  %3 = alloca i32, align 4
  %4 = alloca ptr, align 8
  %5 = alloca ptr, align 8
  %6 = alloca ptr, align 8
  %7 = alloca ptr, align 8
  %8 = alloca i32, align 4
  store ptr %0, ptr %4, align 8, !tbaa !73
  store ptr %1, ptr %5, align 8, !tbaa !73
  call void @llvm.lifetime.start.p0(i64 8, ptr %6) #4
  %9 = load ptr, ptr %4, align 8, !tbaa !73
  %10 = load ptr, ptr %9, align 8, !tbaa !3
  %11 = ptrtoint ptr %10 to i64
  %12 = and i64 %11, -2
  %13 = inttoptr i64 %12 to ptr
  store ptr %13, ptr %6, align 8, !tbaa !3
  call void @llvm.lifetime.start.p0(i64 8, ptr %7) #4
  %14 = load ptr, ptr %5, align 8, !tbaa !73
  %15 = load ptr, ptr %14, align 8, !tbaa !3
  %16 = ptrtoint ptr %15 to i64
  %17 = and i64 %16, -2
  %18 = inttoptr i64 %17 to ptr
  store ptr %18, ptr %7, align 8, !tbaa !3
  %19 = load ptr, ptr %6, align 8, !tbaa !3
  %20 = getelementptr inbounds nuw %struct.Map_NodeStruct_t_, ptr %19, i32 0, i32 5
  %21 = load i32, ptr %20, align 4
  %22 = lshr i32 %21, 5
  %23 = and i32 %22, 65535
  %24 = load ptr, ptr %7, align 8, !tbaa !3
  %25 = getelementptr inbounds nuw %struct.Map_NodeStruct_t_, ptr %24, i32 0, i32 5
  %26 = load i32, ptr %25, align 4
  %27 = lshr i32 %26, 5
  %28 = and i32 %27, 65535
  %29 = icmp sgt i32 %23, %28
  br i1 %29, label %30, label %31

30:                                               ; preds = %2
  store i32 -1, ptr %3, align 4
  store i32 1, ptr %8, align 4
  br label %45

31:                                               ; preds = %2
  %32 = load ptr, ptr %6, align 8, !tbaa !3
  %33 = getelementptr inbounds nuw %struct.Map_NodeStruct_t_, ptr %32, i32 0, i32 5
  %34 = load i32, ptr %33, align 4
  %35 = lshr i32 %34, 5
  %36 = and i32 %35, 65535
  %37 = load ptr, ptr %7, align 8, !tbaa !3
  %38 = getelementptr inbounds nuw %struct.Map_NodeStruct_t_, ptr %37, i32 0, i32 5
  %39 = load i32, ptr %38, align 4
  %40 = lshr i32 %39, 5
  %41 = and i32 %40, 65535
  %42 = icmp slt i32 %36, %41
  br i1 %42, label %43, label %44

43:                                               ; preds = %31
  store i32 1, ptr %3, align 4
  store i32 1, ptr %8, align 4
  br label %45

44:                                               ; preds = %31
  store i32 0, ptr %3, align 4
  store i32 1, ptr %8, align 4
  br label %45

45:                                               ; preds = %44, %43, %30
  call void @llvm.lifetime.end.p0(i64 8, ptr %7) #4
  call void @llvm.lifetime.end.p0(i64 8, ptr %6) #4
  %46 = load i32, ptr %3, align 4
  ret i32 %46
}