; Function Attrs: mustprogress nofree norecurse nosync nounwind willreturn memory(read, inaccessiblemem: none) uwtable
define range(i32 -1, 2) i32 @Map_CompareNodesByLevel(ptr noundef readonly captures(none) %0, ptr noundef readonly captures(none) %1) #8 {
  %3 = load ptr, ptr %0, align 8, !tbaa !31
  %4 = ptrtoint ptr %3 to i64
  %5 = and i64 %4, -2
  %6 = inttoptr i64 %5 to ptr
  %7 = load ptr, ptr %1, align 8, !tbaa !31
  %8 = ptrtoint ptr %7 to i64
  %9 = and i64 %8, -2
  %10 = inttoptr i64 %9 to ptr
  %11 = getelementptr inbounds nuw i8, ptr %6, i64 28
  %12 = load i32, ptr %11, align 4
  %13 = lshr i32 %12, 5
  %14 = and i32 %13, 65535
  %15 = getelementptr inbounds nuw i8, ptr %10, i64 28
  %16 = load i32, ptr %15, align 4
  %17 = lshr i32 %16, 5
  %18 = and i32 %17, 65535
  %.0 = tail call i32 @llvm.ucmp.i32.i32(i32 %18, i32 %14)
  ret i32 %.0
}